; Function Attrs: nounwind uwtable
define hidden void @zim_PDOStatement_setFetchMode(ptr noundef readonly captures(none) %0, ptr noundef writeonly captures(none) %1) #0 {
  %3 = alloca i64, align 8
  %4 = alloca ptr, align 8
  %5 = alloca i32, align 4
  call void @llvm.lifetime.start.p0(i64 8, ptr nonnull %3) #17
  call void @llvm.lifetime.start.p0(i64 8, ptr nonnull %4) #17
  store ptr null, ptr %4, align 8, !tbaa !145
  call void @llvm.lifetime.start.p0(i64 4, ptr nonnull %5) #17
  store i32 0, ptr %5, align 4, !tbaa !123
  %6 = getelementptr inbounds nuw i8, ptr %0, i64 44
  %7 = load i32, ptr %6, align 4, !tbaa !37
  %8 = call i32 (i32, ptr, ...) @zend_parse_parameters(i32 noundef %7, ptr noundef nonnull @.str.26, ptr noundef nonnull %3, ptr noundef nonnull %4, ptr noundef nonnull %5) #17
  %9 = icmp eq i32 %8, -1
  br i1 %9, label %10, label %13

10:                                               ; preds = %2
  %11 = load ptr, ptr getelementptr inbounds nuw (i8, ptr @executor_globals, i64 960), align 8, !tbaa !59
  %12 = icmp ne ptr %11, null
  call void @llvm.assume(i1 %12)
  br label %44

13:                                               ; preds = %2
  %14 = getelementptr inbounds nuw i8, ptr %0, i64 32
  %15 = load ptr, ptr %14, align 8, !tbaa !37
  %16 = getelementptr inbounds i8, ptr %15, i64 -160
  %17 = getelementptr inbounds i8, ptr %15, i64 -48
  %18 = load ptr, ptr %17, align 8, !tbaa !27
  %.not = icmp eq ptr %18, null
  br i1 %.not, label %19, label %27

19:                                               ; preds = %13
  %20 = getelementptr inbounds nuw i8, ptr %15, i64 16
  %21 = load ptr, ptr %20, align 8, !tbaa !45
  %22 = getelementptr inbounds nuw i8, ptr %21, i64 8
  %23 = load ptr, ptr %22, align 8, !tbaa !46
  %24 = getelementptr inbounds nuw i8, ptr %23, i64 24
  call void (ptr, ptr, ...) @zend_throw_error(ptr noundef null, ptr noundef nonnull @.str, ptr noundef nonnull %24) #17
  %25 = load ptr, ptr getelementptr inbounds nuw (i8, ptr @executor_globals, i64 960), align 8, !tbaa !59
  %26 = icmp ne ptr %25, null
  call void @llvm.assume(i1 %26)
  br label %44

27:                                               ; preds = %13
  %28 = getelementptr inbounds i8, ptr %15, i64 -138
  %29 = load i16, ptr %28, align 2
  %30 = and i16 %29, 2
  %.not7 = icmp eq i16 %30, 0
  br i1 %.not7, label %34, label %31

31:                                               ; preds = %27
  call void (ptr, ptr, ...) @zend_throw_error(ptr noundef null, ptr noundef nonnull @.str.27) #17
  %32 = load ptr, ptr getelementptr inbounds nuw (i8, ptr @executor_globals, i64 960), align 8, !tbaa !59
  %33 = icmp ne ptr %32, null
  call void @llvm.assume(i1 %33)
  br label %44

34:                                               ; preds = %27
  %35 = load i64, ptr %3, align 8, !tbaa !103
  %36 = load ptr, ptr %4, align 8, !tbaa !145
  %37 = load i32, ptr %5, align 4, !tbaa !123
  %38 = call zeroext i1 @pdo_stmt_setup_fetch_mode(ptr noundef nonnull %16, i64 noundef %35, i32 noundef 1, ptr noundef %36, i32 noundef %37)
  br i1 %38, label %42, label %39

39:                                               ; preds = %34
  %40 = load ptr, ptr getelementptr inbounds nuw (i8, ptr @executor_globals, i64 960), align 8, !tbaa !59
  %41 = icmp ne ptr %40, null
  call void @llvm.assume(i1 %41)
  br label %44

42:                                               ; preds = %34
  %43 = getelementptr inbounds nuw i8, ptr %1, i64 8
  store i32 3, ptr %43, align 8, !tbaa !37
  br label %44

44:                                               ; preds = %19, %31, %39, %42, %10
  call void @llvm.lifetime.end.p0(i64 4, ptr nonnull %5) #17
  call void @llvm.lifetime.end.p0(i64 8, ptr nonnull %4) #17
  call void @llvm.lifetime.end.p0(i64 8, ptr nonnull %3) #17
  ret void
}